
blinky16.elf:     file format elf32-littleriscv


Disassembly of section .text:

00010074 <main>:

#include "system.c"

int main(void)
{
   DMEM = 0x01234567;
   10074:	012347b7          	lui	a5,0x1234
   10078:	56778793          	addi	a5,a5,1383 # 1234567 <__global_pointer$+0x12222df>
   1007c:	00f02823          	sw	a5,16(zero) # 10 <main-0x10064>
   while (!(DMEM == 0x01234567));
   10080:	01002703          	lw	a4,16(zero) # 10 <main-0x10064>
   10084:	fef71ee3          	bne	a4,a5,10080 <main+0xc>
   GPIO_1_DIR_SET = 0x01;
   10088:	800307b7          	lui	a5,0x80030
   1008c:	4705                	li	a4,1
   1008e:	10e7a223          	sw	a4,260(a5) # 80030104 <__global_pointer$+0x8001de7c>
   if (1) {
	   for (unsigned i = 0; i < 20; i++) {
		   for (unsigned ii = 0; ii < 2; ii++) {
			   for (unsigned iii = 0; iii < 2; iii++) {
     		       GPIO_1_OUT_SET = 0xff;
   10092:	80030737          	lui	a4,0x80030
   GPIO_1_DIR_SET = 0x01;
   10096:	4651                	li	a2,20
     		       GPIO_1_OUT_SET = 0xff;
   10098:	11470693          	addi	a3,a4,276 # 80030114 <__global_pointer$+0x8001de8c>
   1009c:	0ff00793          	li	a5,255
   100a0:	c29c                	sw	a5,0(a3)
   100a2:	c29c                	sw	a5,0(a3)
			   }
			   for (unsigned iii = 0; iii < 2; iii++) {
     		       GPIO_1_OUT_CLR = 0xff;
   100a4:	10f72823          	sw	a5,272(a4)
   100a8:	10f72823          	sw	a5,272(a4)
     		       GPIO_1_OUT_SET = 0xff;
   100ac:	c29c                	sw	a5,0(a3)
   100ae:	c29c                	sw	a5,0(a3)
     		       GPIO_1_OUT_CLR = 0xff;
   100b0:	10f72823          	sw	a5,272(a4)
   100b4:	10f72823          	sw	a5,272(a4)
   100b8:	167d                	addi	a2,a2,-1
	   for (unsigned i = 0; i < 20; i++) {
   100ba:	f27d                	bnez	a2,100a0 <main+0x2c>
   }
   while (1) {
	   for (unsigned i = 0; i < 1000; i++) {
		   for (unsigned ii = 0; ii < 1000; ii++) {
			   for (unsigned iii = 0; iii < 5; iii++) {
     		       GPIO_1_OUT_SET = 0x01;
   100bc:	800305b7          	lui	a1,0x80030
   100c0:	4785                	li	a5,1
   GPIO_1_DIR_SET = 0x01;
   100c2:	3e800613          	li	a2,1000
   100c6:	3e800693          	li	a3,1000
     		       GPIO_1_OUT_SET = 0x01;
   100ca:	11458713          	addi	a4,a1,276 # 80030114 <__global_pointer$+0x8001de8c>
   100ce:	c31c                	sw	a5,0(a4)
   100d0:	c31c                	sw	a5,0(a4)
   100d2:	c31c                	sw	a5,0(a4)
   100d4:	c31c                	sw	a5,0(a4)
   100d6:	c31c                	sw	a5,0(a4)
   100d8:	16fd                	addi	a3,a3,-1
		   for (unsigned ii = 0; ii < 1000; ii++) {
   100da:	faf5                	bnez	a3,100ce <main+0x5a>
   100dc:	167d                	addi	a2,a2,-1
	   for (unsigned i = 0; i < 1000; i++) {
   100de:	f665                	bnez	a2,100c6 <main+0x52>
   100e0:	3e800613          	li	a2,1000
   100e4:	a811                	j	100f8 <main+0x84>
		   }
	   }
	   for (unsigned i = 0; i < 1000; i++) {
		   for (unsigned ii = 0; ii < 1000; ii++) {
			   for (unsigned iii = 0; iii < 5; iii++) {
     		       GPIO_1_OUT_CLR = 0x01;
   100e6:	c31c                	sw	a5,0(a4)
   100e8:	c31c                	sw	a5,0(a4)
   100ea:	c31c                	sw	a5,0(a4)
   100ec:	c31c                	sw	a5,0(a4)
   100ee:	c31c                	sw	a5,0(a4)
   100f0:	16fd                	addi	a3,a3,-1
		   for (unsigned ii = 0; ii < 1000; ii++) {
   100f2:	faf5                	bnez	a3,100e6 <main+0x72>
   100f4:	167d                	addi	a2,a2,-1
	   for (unsigned i = 0; i < 1000; i++) {
   100f6:	d671                	beqz	a2,100c2 <main+0x4e>
   GPIO_1_DIR_SET = 0x01;
   100f8:	3e800693          	li	a3,1000
     		       GPIO_1_OUT_CLR = 0x01;
   100fc:	11058713          	addi	a4,a1,272
   10100:	b7dd                	j	100e6 <main+0x72>
	...

00010104 <_start>:
   10104:	00002197          	auipc	gp,0x2
   10108:	18418193          	addi	gp,gp,388 # 12288 <__global_pointer$>
   1010c:	80818513          	addi	a0,gp,-2040 # 11a90 <_edata>
   10110:	82418613          	addi	a2,gp,-2012 # 11aac <_end>
   10114:	40a60633          	sub	a2,a2,a0
   10118:	00000593          	li	a1,0
   1011c:	26c000ef          	jal	ra,10388 <memset>
   10120:	00000517          	auipc	a0,0x0
   10124:	15c50513          	addi	a0,a0,348 # 1027c <__libc_fini_array>
   10128:	108000ef          	jal	ra,10230 <atexit>
   1012c:	1c4000ef          	jal	ra,102f0 <__libc_init_array>
   10130:	00012503          	lw	a0,0(sp)
   10134:	00410593          	addi	a1,sp,4
   10138:	00000613          	li	a2,0
   1013c:	f39ff0ef          	jal	ra,10074 <main>
   10140:	1040006f          	j	10244 <exit>

00010144 <_fini>:
   10144:	00008067          	ret

00010148 <deregister_tm_clones>:
   10148:	00002517          	auipc	a0,0x2
   1014c:	94050513          	addi	a0,a0,-1728 # 11a88 <_global_impure_ptr>
   10150:	00002797          	auipc	a5,0x2
   10154:	93878793          	addi	a5,a5,-1736 # 11a88 <_global_impure_ptr>
   10158:	00a78a63          	beq	a5,a0,1016c <deregister_tm_clones+0x24>
   1015c:	ffff0317          	auipc	t1,0xffff0
   10160:	ea430313          	addi	t1,t1,-348 # 0 <main-0x10074>
   10164:	00030463          	beqz	t1,1016c <deregister_tm_clones+0x24>
   10168:	00030067          	jr	t1
   1016c:	00008067          	ret

00010170 <register_tm_clones>:
   10170:	00002517          	auipc	a0,0x2
   10174:	91850513          	addi	a0,a0,-1768 # 11a88 <_global_impure_ptr>
   10178:	00002597          	auipc	a1,0x2
   1017c:	91058593          	addi	a1,a1,-1776 # 11a88 <_global_impure_ptr>
   10180:	40a585b3          	sub	a1,a1,a0
   10184:	4025d593          	srai	a1,a1,0x2
   10188:	00200793          	li	a5,2
   1018c:	02f5c5b3          	div	a1,a1,a5
   10190:	00058a63          	beqz	a1,101a4 <register_tm_clones+0x34>
   10194:	ffff0317          	auipc	t1,0xffff0
   10198:	e6c30313          	addi	t1,t1,-404 # 0 <main-0x10074>
   1019c:	00030463          	beqz	t1,101a4 <register_tm_clones+0x34>
   101a0:	00030067          	jr	t1
   101a4:	00008067          	ret

000101a8 <__do_global_dtors_aux>:
   101a8:	00002797          	auipc	a5,0x2
   101ac:	8e87c783          	lbu	a5,-1816(a5) # 11a90 <_edata>
   101b0:	04079263          	bnez	a5,101f4 <__do_global_dtors_aux+0x4c>
   101b4:	ff010113          	addi	sp,sp,-16
   101b8:	00112623          	sw	ra,12(sp)
   101bc:	f8dff0ef          	jal	ra,10148 <deregister_tm_clones>
   101c0:	ffff0797          	auipc	a5,0xffff0
   101c4:	e4078793          	addi	a5,a5,-448 # 0 <main-0x10074>
   101c8:	00078a63          	beqz	a5,101dc <__do_global_dtors_aux+0x34>
   101cc:	00000517          	auipc	a0,0x0
   101d0:	48450513          	addi	a0,a0,1156 # 10650 <__EH_FRAME_BEGIN__>
   101d4:	ffff0097          	auipc	ra,0xffff0
   101d8:	e2c080e7          	jalr	-468(ra) # 0 <main-0x10074>
   101dc:	00c12083          	lw	ra,12(sp)
   101e0:	00100793          	li	a5,1
   101e4:	00002717          	auipc	a4,0x2
   101e8:	8af70623          	sb	a5,-1876(a4) # 11a90 <_edata>
   101ec:	01010113          	addi	sp,sp,16
   101f0:	00008067          	ret
   101f4:	00008067          	ret

000101f8 <frame_dummy>:
   101f8:	ffff0797          	auipc	a5,0xffff0
   101fc:	e0878793          	addi	a5,a5,-504 # 0 <main-0x10074>
   10200:	02078663          	beqz	a5,1022c <frame_dummy+0x34>
   10204:	ff010113          	addi	sp,sp,-16
   10208:	00002597          	auipc	a1,0x2
   1020c:	88c58593          	addi	a1,a1,-1908 # 11a94 <object.5181>
   10210:	00000517          	auipc	a0,0x0
   10214:	44050513          	addi	a0,a0,1088 # 10650 <__EH_FRAME_BEGIN__>
   10218:	00112623          	sw	ra,12(sp)
   1021c:	ffff0097          	auipc	ra,0xffff0
   10220:	de4080e7          	jalr	-540(ra) # 0 <main-0x10074>
   10224:	00c12083          	lw	ra,12(sp)
   10228:	01010113          	addi	sp,sp,16
   1022c:	f45ff06f          	j	10170 <register_tm_clones>

00010230 <atexit>:
   10230:	00050593          	mv	a1,a0
   10234:	00000693          	li	a3,0
   10238:	00000613          	li	a2,0
   1023c:	00000513          	li	a0,0
   10240:	2240006f          	j	10464 <__register_exitproc>

00010244 <exit>:
   10244:	ff010113          	addi	sp,sp,-16
   10248:	00000593          	li	a1,0
   1024c:	00812423          	sw	s0,8(sp)
   10250:	00112623          	sw	ra,12(sp)
   10254:	00050413          	mv	s0,a0
   10258:	290000ef          	jal	ra,104e8 <__call_exitprocs>
   1025c:	00002797          	auipc	a5,0x2
   10260:	82c78793          	addi	a5,a5,-2004 # 11a88 <_global_impure_ptr>
   10264:	0007a503          	lw	a0,0(a5)
   10268:	03c52783          	lw	a5,60(a0)
   1026c:	00078463          	beqz	a5,10274 <exit+0x30>
   10270:	000780e7          	jalr	a5
   10274:	00040513          	mv	a0,s0
   10278:	384000ef          	jal	ra,105fc <_exit>

0001027c <__libc_fini_array>:
   1027c:	fe010113          	addi	sp,sp,-32
   10280:	00001797          	auipc	a5,0x1
   10284:	3dc78793          	addi	a5,a5,988 # 1165c <__fini_array_end>
   10288:	00812c23          	sw	s0,24(sp)
   1028c:	00001417          	auipc	s0,0x1
   10290:	3cc40413          	addi	s0,s0,972 # 11658 <__init_array_end>
   10294:	40878433          	sub	s0,a5,s0
   10298:	00912a23          	sw	s1,20(sp)
   1029c:	01212823          	sw	s2,16(sp)
   102a0:	01312623          	sw	s3,12(sp)
   102a4:	00112e23          	sw	ra,28(sp)
   102a8:	40245413          	srai	s0,s0,0x2
   102ac:	00000493          	li	s1,0
   102b0:	00078913          	mv	s2,a5
   102b4:	ffc00993          	li	s3,-4
   102b8:	02941063          	bne	s0,s1,102d8 <__libc_fini_array+0x5c>
   102bc:	01812403          	lw	s0,24(sp)
   102c0:	01c12083          	lw	ra,28(sp)
   102c4:	01412483          	lw	s1,20(sp)
   102c8:	01012903          	lw	s2,16(sp)
   102cc:	00c12983          	lw	s3,12(sp)
   102d0:	02010113          	addi	sp,sp,32
   102d4:	e71ff06f          	j	10144 <_fini>
   102d8:	033487b3          	mul	a5,s1,s3
   102dc:	00148493          	addi	s1,s1,1
   102e0:	00f907b3          	add	a5,s2,a5
   102e4:	ffc7a783          	lw	a5,-4(a5)
   102e8:	000780e7          	jalr	a5
   102ec:	fcdff06f          	j	102b8 <__libc_fini_array+0x3c>

000102f0 <__libc_init_array>:
   102f0:	ff010113          	addi	sp,sp,-16
   102f4:	00812423          	sw	s0,8(sp)
   102f8:	00912223          	sw	s1,4(sp)
   102fc:	00001417          	auipc	s0,0x1
   10300:	35840413          	addi	s0,s0,856 # 11654 <__frame_dummy_init_array_entry>
   10304:	00001497          	auipc	s1,0x1
   10308:	35048493          	addi	s1,s1,848 # 11654 <__frame_dummy_init_array_entry>
   1030c:	408484b3          	sub	s1,s1,s0
   10310:	01212023          	sw	s2,0(sp)
   10314:	00112623          	sw	ra,12(sp)
   10318:	4024d493          	srai	s1,s1,0x2
   1031c:	00000913          	li	s2,0
   10320:	04991063          	bne	s2,s1,10360 <__libc_init_array+0x70>
   10324:	00001417          	auipc	s0,0x1
   10328:	33040413          	addi	s0,s0,816 # 11654 <__frame_dummy_init_array_entry>
   1032c:	00001497          	auipc	s1,0x1
   10330:	32c48493          	addi	s1,s1,812 # 11658 <__init_array_end>
   10334:	408484b3          	sub	s1,s1,s0
   10338:	e0dff0ef          	jal	ra,10144 <_fini>
   1033c:	4024d493          	srai	s1,s1,0x2
   10340:	00000913          	li	s2,0
   10344:	02991863          	bne	s2,s1,10374 <__libc_init_array+0x84>
   10348:	00c12083          	lw	ra,12(sp)
   1034c:	00812403          	lw	s0,8(sp)
   10350:	00412483          	lw	s1,4(sp)
   10354:	00012903          	lw	s2,0(sp)
   10358:	01010113          	addi	sp,sp,16
   1035c:	00008067          	ret
   10360:	00042783          	lw	a5,0(s0)
   10364:	00190913          	addi	s2,s2,1
   10368:	00440413          	addi	s0,s0,4
   1036c:	000780e7          	jalr	a5
   10370:	fb1ff06f          	j	10320 <__libc_init_array+0x30>
   10374:	00042783          	lw	a5,0(s0)
   10378:	00190913          	addi	s2,s2,1
   1037c:	00440413          	addi	s0,s0,4
   10380:	000780e7          	jalr	a5
   10384:	fc1ff06f          	j	10344 <__libc_init_array+0x54>

00010388 <memset>:
   10388:	00f00313          	li	t1,15
   1038c:	00050713          	mv	a4,a0
   10390:	02c37e63          	bleu	a2,t1,103cc <memset+0x44>
   10394:	00f77793          	andi	a5,a4,15
   10398:	0a079063          	bnez	a5,10438 <memset+0xb0>
   1039c:	08059263          	bnez	a1,10420 <memset+0x98>
   103a0:	ff067693          	andi	a3,a2,-16
   103a4:	00f67613          	andi	a2,a2,15
   103a8:	00e686b3          	add	a3,a3,a4
   103ac:	00b72023          	sw	a1,0(a4)
   103b0:	00b72223          	sw	a1,4(a4)
   103b4:	00b72423          	sw	a1,8(a4)
   103b8:	00b72623          	sw	a1,12(a4)
   103bc:	01070713          	addi	a4,a4,16
   103c0:	fed766e3          	bltu	a4,a3,103ac <memset+0x24>
   103c4:	00061463          	bnez	a2,103cc <memset+0x44>
   103c8:	00008067          	ret
   103cc:	40c306b3          	sub	a3,t1,a2
   103d0:	00269693          	slli	a3,a3,0x2
   103d4:	00000297          	auipc	t0,0x0
   103d8:	005686b3          	add	a3,a3,t0
   103dc:	00c68067          	jr	12(a3)
   103e0:	00b70723          	sb	a1,14(a4)
   103e4:	00b706a3          	sb	a1,13(a4)
   103e8:	00b70623          	sb	a1,12(a4)
   103ec:	00b705a3          	sb	a1,11(a4)
   103f0:	00b70523          	sb	a1,10(a4)
   103f4:	00b704a3          	sb	a1,9(a4)
   103f8:	00b70423          	sb	a1,8(a4)
   103fc:	00b703a3          	sb	a1,7(a4)
   10400:	00b70323          	sb	a1,6(a4)
   10404:	00b702a3          	sb	a1,5(a4)
   10408:	00b70223          	sb	a1,4(a4)
   1040c:	00b701a3          	sb	a1,3(a4)
   10410:	00b70123          	sb	a1,2(a4)
   10414:	00b700a3          	sb	a1,1(a4)
   10418:	00b70023          	sb	a1,0(a4)
   1041c:	00008067          	ret
   10420:	0ff5f593          	andi	a1,a1,255
   10424:	00859693          	slli	a3,a1,0x8
   10428:	00d5e5b3          	or	a1,a1,a3
   1042c:	01059693          	slli	a3,a1,0x10
   10430:	00d5e5b3          	or	a1,a1,a3
   10434:	f6dff06f          	j	103a0 <memset+0x18>
   10438:	00279693          	slli	a3,a5,0x2
   1043c:	00000297          	auipc	t0,0x0
   10440:	005686b3          	add	a3,a3,t0
   10444:	00008293          	mv	t0,ra
   10448:	fa0680e7          	jalr	-96(a3)
   1044c:	00028093          	mv	ra,t0
   10450:	ff078793          	addi	a5,a5,-16
   10454:	40f70733          	sub	a4,a4,a5
   10458:	00f60633          	add	a2,a2,a5
   1045c:	f6c378e3          	bleu	a2,t1,103cc <memset+0x44>
   10460:	f3dff06f          	j	1039c <memset+0x14>

00010464 <__register_exitproc>:
   10464:	00001797          	auipc	a5,0x1
   10468:	62478793          	addi	a5,a5,1572 # 11a88 <_global_impure_ptr>
   1046c:	0007a703          	lw	a4,0(a5)
   10470:	00050313          	mv	t1,a0
   10474:	14872783          	lw	a5,328(a4)
   10478:	00079663          	bnez	a5,10484 <__register_exitproc+0x20>
   1047c:	14c70793          	addi	a5,a4,332
   10480:	14f72423          	sw	a5,328(a4)
   10484:	0047a703          	lw	a4,4(a5)
   10488:	01f00813          	li	a6,31
   1048c:	fff00513          	li	a0,-1
   10490:	04e84a63          	blt	a6,a4,104e4 <__register_exitproc+0x80>
   10494:	00271893          	slli	a7,a4,0x2
   10498:	02030c63          	beqz	t1,104d0 <__register_exitproc+0x6c>
   1049c:	01178533          	add	a0,a5,a7
   104a0:	08c52423          	sw	a2,136(a0)
   104a4:	1887a803          	lw	a6,392(a5)
   104a8:	00100613          	li	a2,1
   104ac:	00e61633          	sll	a2,a2,a4
   104b0:	00c86833          	or	a6,a6,a2
   104b4:	1907a423          	sw	a6,392(a5)
   104b8:	10d52423          	sw	a3,264(a0)
   104bc:	00200693          	li	a3,2
   104c0:	00d31863          	bne	t1,a3,104d0 <__register_exitproc+0x6c>
   104c4:	18c7a683          	lw	a3,396(a5)
   104c8:	00c6e633          	or	a2,a3,a2
   104cc:	18c7a623          	sw	a2,396(a5)
   104d0:	00170713          	addi	a4,a4,1
   104d4:	00e7a223          	sw	a4,4(a5)
   104d8:	011787b3          	add	a5,a5,a7
   104dc:	00b7a423          	sw	a1,8(a5)
   104e0:	00000513          	li	a0,0
   104e4:	00008067          	ret

000104e8 <__call_exitprocs>:
   104e8:	fd010113          	addi	sp,sp,-48
   104ec:	00001797          	auipc	a5,0x1
   104f0:	59c78793          	addi	a5,a5,1436 # 11a88 <_global_impure_ptr>
   104f4:	01312e23          	sw	s3,28(sp)
   104f8:	0007a983          	lw	s3,0(a5)
   104fc:	01412c23          	sw	s4,24(sp)
   10500:	01512a23          	sw	s5,20(sp)
   10504:	01612823          	sw	s6,16(sp)
   10508:	02112623          	sw	ra,44(sp)
   1050c:	02812423          	sw	s0,40(sp)
   10510:	02912223          	sw	s1,36(sp)
   10514:	03212023          	sw	s2,32(sp)
   10518:	01712623          	sw	s7,12(sp)
   1051c:	00050a93          	mv	s5,a0
   10520:	00058a13          	mv	s4,a1
   10524:	00100b13          	li	s6,1
   10528:	1489a483          	lw	s1,328(s3)
   1052c:	00048c63          	beqz	s1,10544 <__call_exitprocs+0x5c>
   10530:	0044a403          	lw	s0,4(s1)
   10534:	fff40913          	addi	s2,s0,-1
   10538:	00241413          	slli	s0,s0,0x2
   1053c:	00848433          	add	s0,s1,s0
   10540:	02095863          	bgez	s2,10570 <__call_exitprocs+0x88>
   10544:	02c12083          	lw	ra,44(sp)
   10548:	02812403          	lw	s0,40(sp)
   1054c:	02412483          	lw	s1,36(sp)
   10550:	02012903          	lw	s2,32(sp)
   10554:	01c12983          	lw	s3,28(sp)
   10558:	01812a03          	lw	s4,24(sp)
   1055c:	01412a83          	lw	s5,20(sp)
   10560:	01012b03          	lw	s6,16(sp)
   10564:	00c12b83          	lw	s7,12(sp)
   10568:	03010113          	addi	sp,sp,48
   1056c:	00008067          	ret
   10570:	000a0c63          	beqz	s4,10588 <__call_exitprocs+0xa0>
   10574:	10442783          	lw	a5,260(s0)
   10578:	01478863          	beq	a5,s4,10588 <__call_exitprocs+0xa0>
   1057c:	fff90913          	addi	s2,s2,-1
   10580:	ffc40413          	addi	s0,s0,-4
   10584:	fbdff06f          	j	10540 <__call_exitprocs+0x58>
   10588:	0044a703          	lw	a4,4(s1)
   1058c:	00442783          	lw	a5,4(s0)
   10590:	fff70713          	addi	a4,a4,-1
   10594:	03271c63          	bne	a4,s2,105cc <__call_exitprocs+0xe4>
   10598:	0124a223          	sw	s2,4(s1)
   1059c:	fe0780e3          	beqz	a5,1057c <__call_exitprocs+0x94>
   105a0:	1884a683          	lw	a3,392(s1)
   105a4:	012b1733          	sll	a4,s6,s2
   105a8:	0044ab83          	lw	s7,4(s1)
   105ac:	00d776b3          	and	a3,a4,a3
   105b0:	02069263          	bnez	a3,105d4 <__call_exitprocs+0xec>
   105b4:	000780e7          	jalr	a5
   105b8:	0044a703          	lw	a4,4(s1)
   105bc:	1489a783          	lw	a5,328(s3)
   105c0:	f77714e3          	bne	a4,s7,10528 <__call_exitprocs+0x40>
   105c4:	faf48ce3          	beq	s1,a5,1057c <__call_exitprocs+0x94>
   105c8:	f61ff06f          	j	10528 <__call_exitprocs+0x40>
   105cc:	00042223          	sw	zero,4(s0)
   105d0:	fcdff06f          	j	1059c <__call_exitprocs+0xb4>
   105d4:	18c4a683          	lw	a3,396(s1)
   105d8:	08442583          	lw	a1,132(s0)
   105dc:	00d77733          	and	a4,a4,a3
   105e0:	00071863          	bnez	a4,105f0 <__call_exitprocs+0x108>
   105e4:	000a8513          	mv	a0,s5
   105e8:	000780e7          	jalr	a5
   105ec:	fcdff06f          	j	105b8 <__call_exitprocs+0xd0>
   105f0:	00058513          	mv	a0,a1
   105f4:	000780e7          	jalr	a5
   105f8:	fc1ff06f          	j	105b8 <__call_exitprocs+0xd0>

000105fc <_exit>:
   105fc:	00000593          	li	a1,0
   10600:	00000613          	li	a2,0
   10604:	00000693          	li	a3,0
   10608:	00000713          	li	a4,0
   1060c:	00000793          	li	a5,0
   10610:	05d00893          	li	a7,93
   10614:	00000073          	ecall
   10618:	02055263          	bgez	a0,1063c <_exit+0x40>
   1061c:	ff010113          	addi	sp,sp,-16
   10620:	00812423          	sw	s0,8(sp)
   10624:	00050413          	mv	s0,a0
   10628:	00112623          	sw	ra,12(sp)
   1062c:	40800433          	neg	s0,s0
   10630:	010000ef          	jal	ra,10640 <__errno>
   10634:	00852023          	sw	s0,0(a0)
   10638:	0000006f          	j	10638 <_exit+0x3c>
   1063c:	0000006f          	j	1063c <_exit+0x40>

00010640 <__errno>:
   10640:	00001797          	auipc	a5,0x1
   10644:	44c78793          	addi	a5,a5,1100 # 11a8c <_impure_ptr>
   10648:	0007a503          	lw	a0,0(a5)
   1064c:	00008067          	ret
